; Function Attrs: null_pointer_is_valid sspstrong uwtable
define internal noundef i32 @dissect_drda_codpntdr(ptr noundef %0, ptr readnone captures(none) %1, ptr noundef %2, ptr readnone captures(none) %3) #0 {
  %5 = alloca i32, align 4
  call void @llvm.lifetime.start.p0(i64 4, ptr nonnull %5) #8
  %6 = load i32, ptr @hf_drda_param_codepoint, align 4
  %7 = call ptr @proto_tree_add_item_ret_uint(ptr noundef %2, i32 noundef %6, ptr noundef %0, i32 noundef 0, i32 noundef 2, i32 noundef 0, ptr noundef nonnull %5)
  %8 = load i32, ptr %5, align 4
  %9 = call ptr @val_to_str_ext(i32 noundef %8, ptr noundef nonnull @drda_opcode_vals_ext, ptr noundef nonnull @.str.829)
  call void (ptr, ptr, ...) @proto_item_append_text(ptr noundef %7, ptr noundef nonnull @.str.998, ptr noundef %9)
  call void @llvm.lifetime.end.p0(i64 4, ptr nonnull %5) #8
  ret i32 2
}